; Function Attrs: mustprogress nounwind uwtable
define internal void @"_ZN4node13CallbackQueueIvJPNS_11EnvironmentEEE12CallbackImplIZZNS_6worker6Worker11StartThreadERKN2v820FunctionCallbackInfoINS7_5ValueEEEENK3$_0clEPvEUlS2_E_E4CallES2_"(ptr nocapture noundef nonnull readonly align 8 dereferenceable(32) %this, ptr noundef %args) unnamed_addr #3 align 2 {
entry:
  %callback_ = getelementptr inbounds i8, ptr %this, i64 24
  %0 = load ptr, ptr %callback_, align 8
  %has_ref_.i = getelementptr inbounds i8, ptr %0, i64 361
  %1 = load i8, ptr %has_ref_.i, align 1
  %2 = and i8 %1, 1
  %tobool.not.i = icmp eq i8 %2, 0
  br i1 %tobool.not.i, label %"_ZZZN4node6worker6Worker11StartThreadERKN2v820FunctionCallbackInfoINS2_5ValueEEEENK3$_0clEPvENKUlPNS_11EnvironmentEE_clESB_.exit", label %if.then.i

if.then.i:                                        ; preds = %entry
  tail call void @_ZN4node11Environment8add_refsEl(ptr noundef nonnull align 8 dereferenceable(2872) %args, i64 noundef -1) #23
  %.pre.i = load ptr, ptr %callback_, align 8
  br label %"_ZZZN4node6worker6Worker11StartThreadERKN2v820FunctionCallbackInfoINS2_5ValueEEEENK3$_0clEPvENKUlPNS_11EnvironmentEE_clESB_.exit"

"_ZZZN4node6worker6Worker11StartThreadERKN2v820FunctionCallbackInfoINS2_5ValueEEEENK3$_0clEPvENKUlPNS_11EnvironmentEE_clESB_.exit": ; preds = %entry, %if.then.i
  %3 = phi ptr [ %.pre.i, %if.then.i ], [ %0, %entry ]
  tail call void @_ZN4node6worker6Worker10JoinThreadEv(ptr noundef nonnull align 8 dereferenceable(392) %3)
  ret void
}